target datalayout = "e-m:e-p270:32:32-p271:32:32-p272:64:64-i64:64-i128:128-f80:128-n8:16:32:64-S128"
target triple = "x86_64-pc-linux-gnu"

%struct._object = type { %union.anon.26, ptr }
%union.anon.26 = type { i64 }
%struct.PyVarObject = type { %struct._object, i64 }
%struct.PyCompilerFlags = type { i32, i32 }
%struct._PyCompiler = type { ptr, ptr, %struct._PyFutureFeatures, %struct.PyCompilerFlags, i32, i32, ptr, ptr, ptr, i8 }
%struct._PyFutureFeatures = type { i32, %struct._Py_SourceLocation }
%struct._Py_SourceLocation = type { i32, i32, i32, i32 }
%struct.compiler_unit = type { ptr, i32, ptr, ptr, ptr, ptr, i32, i32, [21 x %struct._PyCompile_FBlockInfo], %struct._PyCompile_CodeUnitMetadata }
%struct._PyCompile_FBlockInfo = type { i32, %struct._PyJumpTargetLabel, %struct._Py_SourceLocation, %struct._PyJumpTargetLabel, ptr }
%struct._PyJumpTargetLabel = type { i32 }
%struct._PyCompile_CodeUnitMetadata = type { ptr, ptr, ptr, ptr, ptr, ptr, ptr, ptr, i64, i64, i64, i32 }
%struct.PyDictObject = type { %struct._object, i64, i64, ptr, ptr }
%struct.anon.27 = type { i32, i32 }
%struct._symtable_entry = type { %struct._object, ptr, ptr, ptr, ptr, ptr, ptr, ptr, i32, ptr, i32, i8, i32, i16, i32, %struct._Py_SourceLocation, ptr, ptr }
%struct.instruction_sequence = type { %struct._object, ptr, i32, i32, i32, ptr, i32, ptr }

; Function Attrs: alwaysinline nounwind uwtable
define internal i32 @_Py_IsImmortal(ptr noundef %0) #4 {
  %2 = alloca ptr, align 8
  store ptr %0, ptr %2, align 8, !tbaa !32
  %3 = load ptr, ptr %2, align 8, !tbaa !32
  %4 = getelementptr inbounds nuw %struct._object, ptr %3, i32 0, i32 0
  %5 = getelementptr inbounds nuw %struct.anon.27, ptr %4, i32 0, i32 0
  %6 = load i32, ptr %5, align 8, !tbaa !11
  %7 = icmp slt i32 %6, 0
  %8 = zext i1 %7 to i32
  ret i32 %8
}

; Function Attrs: alwaysinline nounwind uwtable
define internal void @Py_DECREF(ptr noundef %0) #4 {
  %2 = alloca ptr, align 8
  store ptr %0, ptr %2, align 8, !tbaa !32
  %3 = load ptr, ptr %2, align 8, !tbaa !32
  %4 = call i32 @_Py_IsImmortal(ptr noundef %3)
  %5 = icmp ne i32 %4, 0
  br i1 %5, label %6, label %7

6:                                                ; preds = %1
  br label %16

7:                                                ; preds = %1
  %8 = load ptr, ptr %2, align 8, !tbaa !32
  %9 = getelementptr inbounds nuw %struct._object, ptr %8, i32 0, i32 0
  %10 = getelementptr inbounds nuw %struct.anon.27, ptr %9, i32 0, i32 0
  %11 = load i32, ptr %10, align 8, !tbaa !11
  %12 = add i32 %11, -1
  store i32 %12, ptr %10, align 8, !tbaa !11
  %13 = icmp eq i32 %12, 0
  br i1 %13, label %14, label %16

14:                                               ; preds = %7
  %15 = load ptr, ptr %2, align 8, !tbaa !32
  call void @_Py_Dealloc(ptr noundef %15)
  br label %16

16:                                               ; preds = %6, %14, %7
  ret void
}

; Function Attrs: inlinehint nounwind uwtable
define internal i64 @Py_SIZE(ptr noundef %0) #3 {
  %2 = alloca ptr, align 8
  store ptr %0, ptr %2, align 8, !tbaa !32
  %3 = load ptr, ptr %2, align 8, !tbaa !32
  %4 = getelementptr inbounds nuw %struct.PyVarObject, ptr %3, i32 0, i32 1
  %5 = load i64, ptr %4, align 8, !tbaa !152
  ret i64 %5
}

; Function Attrs: inlinehint nounwind uwtable
define internal void @Py_XDECREF(ptr noundef %0) #3 {
  %2 = alloca ptr, align 8
  store ptr %0, ptr %2, align 8, !tbaa !32
  %3 = load ptr, ptr %2, align 8, !tbaa !32
  %4 = icmp ne ptr %3, null
  br i1 %4, label %5, label %7

5:                                                ; preds = %1
  %6 = load ptr, ptr %2, align 8, !tbaa !32
  call void @Py_DECREF(ptr noundef %6)
  br label %7

7:                                                ; preds = %5, %1
  ret void
}

; Function Attrs: inlinehint nounwind uwtable
define internal i64 @PyList_GET_SIZE(ptr noundef %0) #3 {
  %2 = alloca ptr, align 8
  %3 = alloca ptr, align 8
  store ptr %0, ptr %2, align 8, !tbaa !32
  call void @llvm.lifetime.start.p0(i64 8, ptr %3) #8
  %4 = load ptr, ptr %2, align 8, !tbaa !32
  store ptr %4, ptr %3, align 8, !tbaa !42
  %5 = load ptr, ptr %3, align 8, !tbaa !42
  %6 = call i64 @Py_SIZE(ptr noundef %5)
  call void @llvm.lifetime.end.p0(i64 8, ptr %3) #8
  ret i64 %6
}

; Function Attrs: inlinehint nounwind uwtable
define internal i64 @PyDict_GET_SIZE(ptr noundef %0) #3 {
  %2 = alloca ptr, align 8
  %3 = alloca ptr, align 8
  store ptr %0, ptr %2, align 8, !tbaa !32
  call void @llvm.lifetime.start.p0(i64 8, ptr %3) #8
  %4 = load ptr, ptr %2, align 8, !tbaa !32
  store ptr %4, ptr %3, align 8, !tbaa !42
  %5 = load ptr, ptr %3, align 8, !tbaa !42
  %6 = getelementptr inbounds nuw %struct.PyDictObject, ptr %5, i32 0, i32 1
  %7 = load i64, ptr %6, align 8, !tbaa !43
  call void @llvm.lifetime.end.p0(i64 8, ptr %3) #8
  ret i64 %7
}

; Function Attrs: nounwind uwtable
define internal ptr @optimize_and_assemble_code_unit(ptr noundef %0, ptr noundef %1, i32 noundef %2, ptr noundef %3) #0 {
  %5 = alloca ptr, align 8
  %6 = alloca ptr, align 8
  %7 = alloca i32, align 4
  %8 = alloca ptr, align 8
  %9 = alloca ptr, align 8
  %10 = alloca %struct.instruction_sequence, align 8
  %11 = alloca ptr, align 8
  %12 = alloca ptr, align 8
  %13 = alloca i32, align 4
  %14 = alloca i32, align 4
  %15 = alloca i32, align 4
  %16 = alloca i32, align 4
  store ptr %0, ptr %5, align 8, !tbaa !33
  store ptr %1, ptr %6, align 8, !tbaa !32
  store i32 %2, ptr %7, align 4, !tbaa !50
  store ptr %3, ptr %8, align 8, !tbaa !32
  call void @llvm.lifetime.start.p0(i64 8, ptr %9) #8
  store ptr null, ptr %9, align 8, !tbaa !123
  call void @llvm.lifetime.start.p0(i64 64, ptr %10) #8
  call void @llvm.memset.p0.i64(ptr align 8 %10, i8 0, i64 64, i1 false)
  call void @llvm.lifetime.start.p0(i64 8, ptr %11) #8
  store ptr null, ptr %11, align 8, !tbaa !99
  call void @llvm.lifetime.start.p0(i64 8, ptr %12) #8
  %17 = load ptr, ptr %5, align 8, !tbaa !33
  %18 = getelementptr inbounds nuw %struct.compiler_unit, ptr %17, i32 0, i32 9
  %19 = getelementptr inbounds nuw %struct._PyCompile_CodeUnitMetadata, ptr %18, i32 0, i32 2
  %20 = load ptr, ptr %19, align 8, !tbaa !49
  %21 = call ptr @consts_dict_keys_inorder(ptr noundef %20)
  store ptr %21, ptr %12, align 8, !tbaa !32
  %22 = load ptr, ptr %12, align 8, !tbaa !32
  %23 = icmp eq ptr %22, null
  br i1 %23, label %24, label %25

24:                                               ; preds = %4
  br label %77

25:                                               ; preds = %4
  %26 = load ptr, ptr %5, align 8, !tbaa !33
  %27 = getelementptr inbounds nuw %struct.compiler_unit, ptr %26, i32 0, i32 5
  %28 = load ptr, ptr %27, align 8, !tbaa !71
  %29 = call ptr @_PyCfg_FromInstructionSequence(ptr noundef %28)
  store ptr %29, ptr %9, align 8, !tbaa !123
  %30 = load ptr, ptr %9, align 8, !tbaa !123
  %31 = icmp eq ptr %30, null
  br i1 %31, label %32, label %33

32:                                               ; preds = %25
  br label %77

33:                                               ; preds = %25
  %34 = load ptr, ptr %5, align 8, !tbaa !33
  %35 = getelementptr inbounds nuw %struct.compiler_unit, ptr %34, i32 0, i32 9
  %36 = getelementptr inbounds nuw %struct._PyCompile_CodeUnitMetadata, ptr %35, i32 0, i32 4
  %37 = load ptr, ptr %36, align 8, !tbaa !61
  %38 = call i64 @PyDict_GET_SIZE(ptr noundef %37)
  %39 = trunc i64 %38 to i32
  store i32 %39, ptr %13, align 4, !tbaa !50
  %40 = load ptr, ptr %5, align 8, !tbaa !33
  %41 = getelementptr inbounds nuw %struct.compiler_unit, ptr %40, i32 0, i32 0
  %42 = load ptr, ptr %41, align 8, !tbaa !56
  %43 = getelementptr inbounds nuw %struct._symtable_entry, ptr %42, i32 0, i32 4
  %44 = load ptr, ptr %43, align 8, !tbaa !58
  %45 = call i64 @PyList_GET_SIZE(ptr noundef %44)
  %46 = trunc i64 %45 to i32
  store i32 %46, ptr %14, align 4, !tbaa !50
  %47 = load ptr, ptr %9, align 8, !tbaa !123
  %48 = load ptr, ptr %12, align 8, !tbaa !32
  %49 = load ptr, ptr %6, align 8, !tbaa !32
  %50 = load i32, ptr %13, align 4, !tbaa !50
  %51 = load i32, ptr %14, align 4, !tbaa !50
  %52 = load ptr, ptr %5, align 8, !tbaa !33
  %53 = getelementptr inbounds nuw %struct.compiler_unit, ptr %52, i32 0, i32 9
  %54 = getelementptr inbounds nuw %struct._PyCompile_CodeUnitMetadata, ptr %53, i32 0, i32 11
  %55 = load i32, ptr %54, align 8, !tbaa !68
  %56 = call i32 @_PyCfg_OptimizeCodeUnit(ptr noundef %47, ptr noundef %48, ptr noundef %49, i32 noundef %50, i32 noundef %51, i32 noundef %55)
  %57 = icmp slt i32 %56, 0
  br i1 %57, label %58, label %59

58:                                               ; preds = %33
  br label %77

59:                                               ; preds = %33
  %60 = load ptr, ptr %9, align 8, !tbaa !123
  %61 = load ptr, ptr %5, align 8, !tbaa !33
  %62 = getelementptr inbounds nuw %struct.compiler_unit, ptr %61, i32 0, i32 9
  %63 = load i32, ptr %7, align 4, !tbaa !50
  %64 = call i32 @_PyCfg_OptimizedCfgToInstructionSequence(ptr noundef %60, ptr noundef %62, i32 noundef %63, ptr noundef %15, ptr noundef %16, ptr noundef %10)
  %65 = icmp slt i32 %64, 0
  br i1 %65, label %66, label %67

66:                                               ; preds = %59
  br label %77

67:                                               ; preds = %59
  %68 = load ptr, ptr %5, align 8, !tbaa !33
  %69 = getelementptr inbounds nuw %struct.compiler_unit, ptr %68, i32 0, i32 9
  %70 = load ptr, ptr %6, align 8, !tbaa !32
  %71 = load ptr, ptr %12, align 8, !tbaa !32
  %72 = load i32, ptr %15, align 4, !tbaa !50
  %73 = load i32, ptr %16, align 4, !tbaa !50
  %74 = load i32, ptr %7, align 4, !tbaa !50
  %75 = load ptr, ptr %8, align 8, !tbaa !32
  %76 = call ptr @_PyAssemble_MakeCodeObject(ptr noundef %69, ptr noundef %70, ptr noundef %71, i32 noundef %72, ptr noundef %10, i32 noundef %73, i32 noundef %74, ptr noundef %75)
  store ptr %76, ptr %11, align 8, !tbaa !99
  br label %77

77:                                               ; preds = %67, %66, %58, %32, %24
  %78 = load ptr, ptr %12, align 8, !tbaa !32
  call void @Py_XDECREF(ptr noundef %78)
  call void @PyInstructionSequence_Fini(ptr noundef %10)
  %79 = load ptr, ptr %9, align 8, !tbaa !123
  call void @_PyCfgBuilder_Free(ptr noundef %79)
  %80 = load ptr, ptr %11, align 8, !tbaa !99
  call void @llvm.lifetime.end.p0(i64 8, ptr %12) #8
  call void @llvm.lifetime.end.p0(i64 8, ptr %11) #8
  call void @llvm.lifetime.end.p0(i64 64, ptr %10) #8
  call void @llvm.lifetime.end.p0(i64 8, ptr %9) #8
  ret ptr %80
}

; Function Attrs: nounwind uwtable
define internal i32 @compute_code_flags(ptr noundef %0) #0 {
  %2 = alloca ptr, align 8
  %3 = alloca ptr, align 8
  %4 = alloca i32, align 4
  store ptr %0, ptr %2, align 8, !tbaa !4
  call void @llvm.lifetime.start.p0(i64 8, ptr %3) #8
  %5 = load ptr, ptr %2, align 8, !tbaa !4
  %6 = getelementptr inbounds nuw %struct._PyCompiler, ptr %5, i32 0, i32 7
  %7 = load ptr, ptr %6, align 8, !tbaa !48
  %8 = getelementptr inbounds nuw %struct.compiler_unit, ptr %7, i32 0, i32 0
  %9 = load ptr, ptr %8, align 8, !tbaa !56
  store ptr %9, ptr %3, align 8, !tbaa !78
  call void @llvm.lifetime.start.p0(i64 4, ptr %4) #8
  store i32 0, ptr %4, align 4, !tbaa !50
  %10 = load ptr, ptr %3, align 8, !tbaa !78
  %11 = call i32 @_PyST_IsFunctionLike(ptr noundef %10)
  %12 = icmp ne i32 %11, 0
  br i1 %12, label %13, label %103

13:                                               ; preds = %1
  %14 = load i32, ptr %4, align 4, !tbaa !50
  %15 = or i32 %14, 3
  store i32 %15, ptr %4, align 4, !tbaa !50
  %16 = load ptr, ptr %3, align 8, !tbaa !78
  %17 = getelementptr inbounds nuw %struct._symtable_entry, ptr %16, i32 0, i32 10
  %18 = load i32, ptr %17, align 8, !tbaa !121
  %19 = icmp ne i32 %18, 0
  br i1 %19, label %20, label %23

20:                                               ; preds = %13
  %21 = load i32, ptr %4, align 4, !tbaa !50
  %22 = or i32 %21, 16
  store i32 %22, ptr %4, align 4, !tbaa !50
  br label %23

23:                                               ; preds = %20, %13
  %24 = load ptr, ptr %3, align 8, !tbaa !78
  %25 = getelementptr inbounds nuw %struct._symtable_entry, ptr %24, i32 0, i32 11
  %26 = load i8, ptr %25, align 4
  %27 = and i8 %26, 1
  %28 = zext i8 %27 to i32
  %29 = icmp ne i32 %28, 0
  br i1 %29, label %30, label %41

30:                                               ; preds = %23
  %31 = load ptr, ptr %3, align 8, !tbaa !78
  %32 = getelementptr inbounds nuw %struct._symtable_entry, ptr %31, i32 0, i32 11
  %33 = load i8, ptr %32, align 4
  %34 = lshr i8 %33, 1
  %35 = and i8 %34, 1
  %36 = zext i8 %35 to i32
  %37 = icmp ne i32 %36, 0
  br i1 %37, label %41, label %38

38:                                               ; preds = %30
  %39 = load i32, ptr %4, align 4, !tbaa !50
  %40 = or i32 %39, 32
  store i32 %40, ptr %4, align 4, !tbaa !50
  br label %41

41:                                               ; preds = %38, %30, %23
  %42 = load ptr, ptr %3, align 8, !tbaa !78
  %43 = getelementptr inbounds nuw %struct._symtable_entry, ptr %42, i32 0, i32 11
  %44 = load i8, ptr %43, align 4
  %45 = and i8 %44, 1
  %46 = zext i8 %45 to i32
  %47 = icmp ne i32 %46, 0
  br i1 %47, label %48, label %59

48:                                               ; preds = %41
  %49 = load ptr, ptr %3, align 8, !tbaa !78
  %50 = getelementptr inbounds nuw %struct._symtable_entry, ptr %49, i32 0, i32 11
  %51 = load i8, ptr %50, align 4
  %52 = lshr i8 %51, 1
  %53 = and i8 %52, 1
  %54 = zext i8 %53 to i32
  %55 = icmp ne i32 %54, 0
  br i1 %55, label %56, label %59

56:                                               ; preds = %48
  %57 = load i32, ptr %4, align 4, !tbaa !50
  %58 = or i32 %57, 512
  store i32 %58, ptr %4, align 4, !tbaa !50
  br label %59

59:                                               ; preds = %56, %48, %41
  %60 = load ptr, ptr %3, align 8, !tbaa !78
  %61 = getelementptr inbounds nuw %struct._symtable_entry, ptr %60, i32 0, i32 13
  %62 = load i16, ptr %61, align 4
  %63 = and i16 %62, 1
  %64 = zext i16 %63 to i32
  %65 = icmp ne i32 %64, 0
  br i1 %65, label %66, label %69

66:                                               ; preds = %59
  %67 = load i32, ptr %4, align 4, !tbaa !50
  %68 = or i32 %67, 4
  store i32 %68, ptr %4, align 4, !tbaa !50
  br label %69

69:                                               ; preds = %66, %59
  %70 = load ptr, ptr %3, align 8, !tbaa !78
  %71 = getelementptr inbounds nuw %struct._symtable_entry, ptr %70, i32 0, i32 13
  %72 = load i16, ptr %71, align 4
  %73 = lshr i16 %72, 1
  %74 = and i16 %73, 1
  %75 = zext i16 %74 to i32
  %76 = icmp ne i32 %75, 0
  br i1 %76, label %77, label %80

77:                                               ; preds = %69
  %78 = load i32, ptr %4, align 4, !tbaa !50
  %79 = or i32 %78, 8
  store i32 %79, ptr %4, align 4, !tbaa !50
  br label %80

80:                                               ; preds = %77, %69
  %81 = load ptr, ptr %3, align 8, !tbaa !78
  %82 = getelementptr inbounds nuw %struct._symtable_entry, ptr %81, i32 0, i32 13
  %83 = load i16, ptr %82, align 4
  %84 = lshr i16 %83, 8
  %85 = and i16 %84, 1
  %86 = zext i16 %85 to i32
  %87 = icmp ne i32 %86, 0
  br i1 %87, label %88, label %91

88:                                               ; preds = %80
  %89 = load i32, ptr %4, align 4, !tbaa !50
  %90 = or i32 %89, 67108864
  store i32 %90, ptr %4, align 4, !tbaa !50
  br label %91

91:                                               ; preds = %88, %80
  %92 = load ptr, ptr %3, align 8, !tbaa !78
  %93 = getelementptr inbounds nuw %struct._symtable_entry, ptr %92, i32 0, i32 13
  %94 = load i16, ptr %93, align 4
  %95 = lshr i16 %94, 9
  %96 = and i16 %95, 1
  %97 = zext i16 %96 to i32
  %98 = icmp ne i32 %97, 0
  br i1 %98, label %99, label %102

99:                                               ; preds = %91
  %100 = load i32, ptr %4, align 4, !tbaa !50
  %101 = or i32 %100, 134217728
  store i32 %101, ptr %4, align 4, !tbaa !50
  br label %102

102:                                              ; preds = %99, %91
  br label %103

103:                                              ; preds = %102, %1
  %104 = load ptr, ptr %3, align 8, !tbaa !78
  %105 = getelementptr inbounds nuw %struct._symtable_entry, ptr %104, i32 0, i32 11
  %106 = load i8, ptr %105, align 4
  %107 = lshr i8 %106, 1
  %108 = and i8 %107, 1
  %109 = zext i8 %108 to i32
  %110 = icmp ne i32 %109, 0
  br i1 %110, label %111, label %121

111:                                              ; preds = %103
  %112 = load ptr, ptr %3, align 8, !tbaa !78
  %113 = getelementptr inbounds nuw %struct._symtable_entry, ptr %112, i32 0, i32 11
  %114 = load i8, ptr %113, align 4
  %115 = and i8 %114, 1
  %116 = zext i8 %115 to i32
  %117 = icmp ne i32 %116, 0
  br i1 %117, label %121, label %118

118:                                              ; preds = %111
  %119 = load i32, ptr %4, align 4, !tbaa !50
  %120 = or i32 %119, 128
  store i32 %120, ptr %4, align 4, !tbaa !50
  br label %121

121:                                              ; preds = %118, %111, %103
  %122 = load ptr, ptr %2, align 8, !tbaa !4
  %123 = getelementptr inbounds nuw %struct._PyCompiler, ptr %122, i32 0, i32 3
  %124 = getelementptr inbounds nuw %struct.PyCompilerFlags, ptr %123, i32 0, i32 0
  %125 = load i32, ptr %124, align 4, !tbaa !122
  %126 = and i32 %125, 33423360
  %127 = load i32, ptr %4, align 4, !tbaa !50
  %128 = or i32 %127, %126
  store i32 %128, ptr %4, align 4, !tbaa !50
  %129 = load i32, ptr %4, align 4, !tbaa !50
  call void @llvm.lifetime.end.p0(i64 4, ptr %4) #8
  call void @llvm.lifetime.end.p0(i64 8, ptr %3) #8
  ret i32 %129
}

; Function Attrs: nounwind uwtable
define hidden ptr @_PyCompile_OptimizeAndAssemble(ptr noundef %0, i32 noundef %1) #0 {
  %3 = alloca ptr, align 8
  %4 = alloca ptr, align 8
  %5 = alloca i32, align 4
  %6 = alloca ptr, align 8
  %7 = alloca ptr, align 8
  %8 = alloca ptr, align 8
  %9 = alloca i32, align 4
  %10 = alloca i32, align 4
  store ptr %0, ptr %4, align 8, !tbaa !4
  store i32 %1, ptr %5, align 4, !tbaa !50
  call void @llvm.lifetime.start.p0(i64 8, ptr %6) #8
  %11 = load ptr, ptr %4, align 8, !tbaa !4
  %12 = getelementptr inbounds nuw %struct._PyCompiler, ptr %11, i32 0, i32 7
  %13 = load ptr, ptr %12, align 8, !tbaa !48
  store ptr %13, ptr %6, align 8, !tbaa !33
  call void @llvm.lifetime.start.p0(i64 8, ptr %7) #8
  %14 = load ptr, ptr %4, align 8, !tbaa !4
  %15 = getelementptr inbounds nuw %struct._PyCompiler, ptr %14, i32 0, i32 6
  %16 = load ptr, ptr %15, align 8, !tbaa !47
  store ptr %16, ptr %7, align 8, !tbaa !32
  call void @llvm.lifetime.start.p0(i64 8, ptr %8) #8
  %17 = load ptr, ptr %4, align 8, !tbaa !4
  %18 = getelementptr inbounds nuw %struct._PyCompiler, ptr %17, i32 0, i32 0
  %19 = load ptr, ptr %18, align 8, !tbaa !93
  store ptr %19, ptr %8, align 8, !tbaa !32
  call void @llvm.lifetime.start.p0(i64 4, ptr %9) #8
  %20 = load ptr, ptr %4, align 8, !tbaa !4
  %21 = call i32 @compute_code_flags(ptr noundef %20)
  store i32 %21, ptr %9, align 4, !tbaa !50
  %22 = load i32, ptr %9, align 4, !tbaa !50
  %23 = icmp slt i32 %22, 0
  br i1 %23, label %24, label %25

24:                                               ; preds = %2
  store ptr null, ptr %3, align 8
  store i32 1, ptr %10, align 4
  br label %37

25:                                               ; preds = %2
  %26 = load ptr, ptr %4, align 8, !tbaa !4
  %27 = load i32, ptr %5, align 4, !tbaa !50
  %28 = call i32 @_PyCodegen_AddReturnAtEnd(ptr noundef %26, i32 noundef %27)
  %29 = icmp slt i32 %28, 0
  br i1 %29, label %30, label %31

30:                                               ; preds = %25
  store ptr null, ptr %3, align 8
  store i32 1, ptr %10, align 4
  br label %37

31:                                               ; preds = %25
  %32 = load ptr, ptr %6, align 8, !tbaa !33
  %33 = load ptr, ptr %7, align 8, !tbaa !32
  %34 = load i32, ptr %9, align 4, !tbaa !50
  %35 = load ptr, ptr %8, align 8, !tbaa !32
  %36 = call ptr @optimize_and_assemble_code_unit(ptr noundef %32, ptr noundef %33, i32 noundef %34, ptr noundef %35)
  store ptr %36, ptr %3, align 8
  store i32 1, ptr %10, align 4
  br label %37

37:                                               ; preds = %31, %30, %24
  call void @llvm.lifetime.end.p0(i64 4, ptr %9) #8
  call void @llvm.lifetime.end.p0(i64 8, ptr %8) #8
  call void @llvm.lifetime.end.p0(i64 8, ptr %7) #8
  call void @llvm.lifetime.end.p0(i64 8, ptr %6) #8
  %38 = load ptr, ptr %3, align 8
  ret ptr %38
}