; Function Attrs: nounwind uwtable
define hidden ptr @_PyCompile_OptimizeAndAssemble(ptr noundef %0, i32 noundef %1) local_unnamed_addr #0 {
  %3 = alloca %struct.instruction_sequence, align 8
  %4 = alloca i32, align 4
  %5 = alloca i32, align 4
  %6 = getelementptr inbounds nuw i8, ptr %0, i64 64
  %7 = load ptr, ptr %6, align 8, !tbaa !42
  %8 = getelementptr inbounds nuw i8, ptr %0, i64 56
  %9 = load ptr, ptr %8, align 8, !tbaa !41
  %10 = load ptr, ptr %0, align 8, !tbaa !77
  %11 = load ptr, ptr %7, align 8, !tbaa !48
  %12 = tail call i32 @_PyST_IsFunctionLike(ptr noundef %11) #11
  %.not.i = icmp eq i32 %12, 0
  br i1 %.not.i, label %._crit_edge.i, label %13

._crit_edge.i:                                    ; preds = %2
  %.phi.trans.insert.i = getelementptr inbounds nuw i8, ptr %11, i64 92
  %.pre.i = load i8, ptr %.phi.trans.insert.i, align 4
  %.pre39.i = and i8 %.pre.i, 3
  br label %compute_code_flags.exit

13:                                               ; preds = %2
  %14 = getelementptr inbounds nuw i8, ptr %11, i64 88
  %15 = load i32, ptr %14, align 8, !tbaa !95
  %.not24.i = icmp eq i32 %15, 0
  %spec.select.i = select i1 %.not24.i, i32 3, i32 19
  %16 = getelementptr inbounds nuw i8, ptr %11, i64 92
  %17 = load i8, ptr %16, align 4
  %18 = and i8 %17, 3
  %or.cond.i = icmp eq i8 %18, 1
  %19 = or disjoint i32 %spec.select.i, 32
  %.2.i = select i1 %or.cond.i, i32 %19, i32 %spec.select.i
  %or.cond35.not.i = icmp eq i8 %18, 3
  %20 = or disjoint i32 %.2.i, 512
  %.3.i = select i1 %or.cond35.not.i, i32 %20, i32 %.2.i
  %21 = getelementptr inbounds nuw i8, ptr %11, i64 100
  %22 = load i16, ptr %21, align 4
  %23 = shl i16 %22, 2
  %24 = and i16 %22, 768
  %25 = zext nneg i16 %24 to i32
  %26 = shl nuw nsw i32 %25, 18
  %.438.i = and i16 %23, 12
  %.4.i = zext nneg i16 %.438.i to i32
  %.5.i = or disjoint i32 %26, %.4.i
  %spec.select37.i = or disjoint i32 %.5.i, %.3.i
  br label %compute_code_flags.exit

compute_code_flags.exit:                          ; preds = %._crit_edge.i, %13
  %.pre-phi.i = phi i8 [ %.pre39.i, %._crit_edge.i ], [ %18, %13 ]
  %.0.i = phi i32 [ 0, %._crit_edge.i ], [ %spec.select37.i, %13 ]
  %or.cond36.i = icmp eq i8 %.pre-phi.i, 2
  %27 = or i32 %.0.i, 128
  %.7.i = select i1 %or.cond36.i, i32 %27, i32 %.0.i
  %28 = getelementptr inbounds nuw i8, ptr %0, i64 36
  %29 = load i32, ptr %28, align 4, !tbaa !96
  %30 = and i32 %29, 33423360
  %31 = or i32 %.7.i, %30
  %32 = tail call i32 @_PyCodegen_AddReturnAtEnd(ptr noundef nonnull %0, i32 noundef %1) #11
  %33 = icmp slt i32 %32, 0
  br i1 %33, label %72, label %34

34:                                               ; preds = %compute_code_flags.exit
  call void @llvm.lifetime.start.p0(i64 4, ptr nonnull %4)
  call void @llvm.lifetime.start.p0(i64 4, ptr nonnull %5)
  call void @llvm.lifetime.start.p0(i64 64, ptr nonnull %3) #11
  call void @llvm.memset.p0.i64(ptr noundef nonnull align 8 dereferenceable(64) %3, i8 0, i64 64, i1 false)
  %35 = getelementptr inbounds nuw i8, ptr %7, i64 896
  %36 = getelementptr inbounds nuw i8, ptr %7, i64 912
  %37 = load ptr, ptr %36, align 8, !tbaa !43
  %38 = tail call fastcc ptr @consts_dict_keys_inorder(ptr noundef %37)
  %39 = icmp eq ptr %38, null
  br i1 %39, label %optimize_and_assemble_code_unit.exit, label %40

40:                                               ; preds = %34
  %41 = getelementptr inbounds nuw i8, ptr %7, i64 40
  %42 = load ptr, ptr %41, align 8, !tbaa !64
  %43 = tail call ptr @_PyCfg_FromInstructionSequence(ptr noundef %42) #11
  %44 = icmp eq ptr %43, null
  br i1 %44, label %66, label %45

45:                                               ; preds = %40
  %46 = getelementptr inbounds nuw i8, ptr %7, i64 928
  %47 = load ptr, ptr %46, align 8, !tbaa !54
  %48 = getelementptr i8, ptr %47, i64 16
  %.val25.i = load i64, ptr %48, align 8, !tbaa !37
  %49 = trunc i64 %.val25.i to i32
  %50 = load ptr, ptr %7, align 8, !tbaa !48
  %51 = getelementptr inbounds nuw i8, ptr %50, i64 40
  %52 = load ptr, ptr %51, align 8, !tbaa !50
  %53 = getelementptr i8, ptr %52, i64 16
  %.val.i = load i64, ptr %53, align 8, !tbaa !20
  %54 = trunc i64 %.val.i to i32
  %55 = getelementptr inbounds nuw i8, ptr %7, i64 984
  %56 = load i32, ptr %55, align 8, !tbaa !61
  %57 = tail call i32 @_PyCfg_OptimizeCodeUnit(ptr noundef nonnull %43, ptr noundef nonnull %38, ptr noundef %9, i32 noundef %49, i32 noundef %54, i32 noundef %56) #11
  %58 = icmp slt i32 %57, 0
  br i1 %58, label %66, label %59

59:                                               ; preds = %45
  %60 = call i32 @_PyCfg_OptimizedCfgToInstructionSequence(ptr noundef nonnull %43, ptr noundef nonnull %35, i32 noundef range(i32 0, 268435456) %31, ptr noundef nonnull %4, ptr noundef nonnull %5, ptr noundef nonnull %3) #11
  %61 = icmp slt i32 %60, 0
  br i1 %61, label %66, label %62

62:                                               ; preds = %59
  %63 = load i32, ptr %4, align 4, !tbaa !46
  %64 = load i32, ptr %5, align 4, !tbaa !46
  %65 = call ptr @_PyAssemble_MakeCodeObject(ptr noundef nonnull %35, ptr noundef %9, ptr noundef nonnull %38, i32 noundef %63, ptr noundef nonnull %3, i32 noundef %64, i32 noundef range(i32 0, 268435456) %31, ptr noundef %10) #11
  br label %66

66:                                               ; preds = %62, %59, %45, %40
  %.022.ph.i = phi ptr [ %65, %62 ], [ null, %59 ], [ null, %45 ], [ null, %40 ]
  %67 = load i32, ptr %38, align 8, !tbaa !4
  %.not.i.i.i = icmp sgt i32 %67, -1
  br i1 %.not.i.i.i, label %68, label %optimize_and_assemble_code_unit.exit

68:                                               ; preds = %66
  %69 = add nsw i32 %67, -1
  store i32 %69, ptr %38, align 8, !tbaa !4
  %70 = icmp eq i32 %69, 0
  br i1 %70, label %71, label %optimize_and_assemble_code_unit.exit

71:                                               ; preds = %68
  call void @_Py_Dealloc(ptr noundef nonnull %38) #11
  br label %optimize_and_assemble_code_unit.exit

optimize_and_assemble_code_unit.exit:             ; preds = %34, %66, %68, %71
  %.031.i = phi ptr [ %43, %66 ], [ %43, %68 ], [ %43, %71 ], [ null, %34 ]
  %.02229.i = phi ptr [ %.022.ph.i, %66 ], [ %.022.ph.i, %68 ], [ %.022.ph.i, %71 ], [ null, %34 ]
  call void @PyInstructionSequence_Fini(ptr noundef nonnull %3) #11
  call void @_PyCfgBuilder_Free(ptr noundef %.031.i) #11
  call void @llvm.lifetime.end.p0(i64 64, ptr nonnull %3) #11
  call void @llvm.lifetime.end.p0(i64 4, ptr nonnull %4)
  call void @llvm.lifetime.end.p0(i64 4, ptr nonnull %5)
  br label %72

72:                                               ; preds = %compute_code_flags.exit, %optimize_and_assemble_code_unit.exit
  %.0 = phi ptr [ %.02229.i, %optimize_and_assemble_code_unit.exit ], [ null, %compute_code_flags.exit ]
  ret ptr %.0
}